target datalayout = "e-m:e-p270:32:32-p271:32:32-p272:64:64-i64:64-i128:128-f80:128-n8:16:32:64-S128"
target triple = "x86_64-pc-linux-gnu"

%class.RSCoder16 = type { ptr, ptr, i8, i32, i32, i32, ptr, ptr, ptr, i64 }

; Function Attrs: mustprogress nounwind uwtable
define linkonce_odr noundef i32 @_ZN9RSCoder165gfInvEj(ptr noundef nonnull align 8 dereferenceable(64) %0, i32 noundef %1) #1 comdat align 2 {
  %3 = alloca ptr, align 8
  %4 = alloca i32, align 4
  store ptr %0, ptr %3, align 8
  store i32 %1, ptr %4, align 4
  %5 = load ptr, ptr %3, align 8
  %6 = load i32, ptr %4, align 4
  %7 = icmp eq i32 %6, 0
  br i1 %7, label %8, label %9

8:                                                ; preds = %2
  br label %22

9:                                                ; preds = %2
  %10 = getelementptr inbounds %class.RSCoder16, ptr %5, i32 0, i32 0
  %11 = load ptr, ptr %10, align 8
  %12 = getelementptr inbounds %class.RSCoder16, ptr %5, i32 0, i32 1
  %13 = load ptr, ptr %12, align 8
  %14 = load i32, ptr %4, align 4
  %15 = zext i32 %14 to i64
  %16 = getelementptr inbounds i32, ptr %13, i64 %15
  %17 = load i32, ptr %16, align 4
  %18 = sub i32 65535, %17
  %19 = zext i32 %18 to i64
  %20 = getelementptr inbounds i32, ptr %11, i64 %19
  %21 = load i32, ptr %20, align 4
  br label %22

22:                                               ; preds = %9, %8
  %23 = phi i32 [ 0, %8 ], [ %21, %9 ]
  ret i32 %23
}

; Function Attrs: mustprogress nounwind uwtable
define linkonce_odr noundef i32 @_ZN9RSCoder165gfAddEjj(ptr noundef nonnull align 8 dereferenceable(64) %0, i32 noundef %1, i32 noundef %2) #1 comdat align 2 {
  %4 = alloca ptr, align 8
  %5 = alloca i32, align 4
  %6 = alloca i32, align 4
  store ptr %0, ptr %4, align 8
  store i32 %1, ptr %5, align 4
  store i32 %2, ptr %6, align 4
  %7 = load i32, ptr %5, align 4
  %8 = load i32, ptr %6, align 4
  %9 = xor i32 %7, %8
  ret i32 %9
}

; Function Attrs: mustprogress uwtable
define void @_ZN9RSCoder1617MakeEncoderMatrixEv(ptr noundef nonnull align 8 dereferenceable(64) %0) #0 align 2 {
  %2 = alloca ptr, align 8
  %3 = alloca i32, align 4
  %4 = alloca i32, align 4
  store ptr %0, ptr %2, align 8
  %5 = load ptr, ptr %2, align 8
  store i32 0, ptr %3, align 4
  br label %6

6:                                                ; preds = %39, %1
  %7 = load i32, ptr %3, align 4
  %8 = getelementptr inbounds %class.RSCoder16, ptr %5, i32 0, i32 4
  %9 = load i32, ptr %8, align 8
  %10 = icmp ult i32 %7, %9
  br i1 %10, label %11, label %42

11:                                               ; preds = %6
  store i32 0, ptr %4, align 4
  br label %12

12:                                               ; preds = %35, %11
  %13 = load i32, ptr %4, align 4
  %14 = getelementptr inbounds %class.RSCoder16, ptr %5, i32 0, i32 3
  %15 = load i32, ptr %14, align 4
  %16 = icmp ult i32 %13, %15
  br i1 %16, label %17, label %38

17:                                               ; preds = %12
  %18 = load i32, ptr %3, align 4
  %19 = getelementptr inbounds %class.RSCoder16, ptr %5, i32 0, i32 3
  %20 = load i32, ptr %19, align 4
  %21 = add i32 %18, %20
  %22 = load i32, ptr %4, align 4
  %23 = call noundef i32 @_ZN9RSCoder165gfAddEjj(ptr noundef nonnull align 8 dereferenceable(64) %5, i32 noundef %21, i32 noundef %22)
  %24 = call noundef i32 @_ZN9RSCoder165gfInvEj(ptr noundef nonnull align 8 dereferenceable(64) %5, i32 noundef %23)
  %25 = getelementptr inbounds %class.RSCoder16, ptr %5, i32 0, i32 7
  %26 = load ptr, ptr %25, align 8
  %27 = load i32, ptr %3, align 4
  %28 = getelementptr inbounds %class.RSCoder16, ptr %5, i32 0, i32 3
  %29 = load i32, ptr %28, align 4
  %30 = mul i32 %27, %29
  %31 = load i32, ptr %4, align 4
  %32 = add i32 %30, %31
  %33 = zext i32 %32 to i64
  %34 = getelementptr inbounds i32, ptr %26, i64 %33
  store i32 %24, ptr %34, align 4
  br label %35

35:                                               ; preds = %17
  %36 = load i32, ptr %4, align 4
  %37 = add i32 %36, 1
  store i32 %37, ptr %4, align 4
  br label %12, !llvm.loop !22

38:                                               ; preds = %12
  br label %39

39:                                               ; preds = %38
  %40 = load i32, ptr %3, align 4
  %41 = add i32 %40, 1
  store i32 %41, ptr %3, align 4
  br label %6, !llvm.loop !23

42:                                               ; preds = %6
  ret void
}