; Function Attrs: mustprogress nofree norecurse nosync nounwind memory(readwrite, inaccessiblemem: none) uwtable
define void @_ZN9RSCoder1617MakeEncoderMatrixEv(ptr nocapture noundef nonnull readonly align 8 dereferenceable(64) %0) local_unnamed_addr #4 align 2 {
  %2 = getelementptr inbounds i8, ptr %0, i64 24
  %3 = load i32, ptr %2, align 8
  %.not = icmp eq i32 %3, 0
  br i1 %.not, label %._crit_edge12, label %.preheader.lr.ph

.preheader.lr.ph:                                 ; preds = %1
  %4 = getelementptr inbounds i8, ptr %0, i64 20
  %5 = getelementptr inbounds i8, ptr %0, i64 8
  %6 = getelementptr inbounds i8, ptr %0, i64 40
  %7 = load i32, ptr %4, align 4
  %.not13 = icmp eq i32 %7, 0
  br i1 %.not13, label %._crit_edge12, label %.preheader

.preheader:                                       ; preds = %.preheader.lr.ph, %._crit_edge
  %8 = phi i32 [ %33, %._crit_edge ], [ %3, %.preheader.lr.ph ]
  %9 = phi i32 [ %34, %._crit_edge ], [ %7, %.preheader.lr.ph ]
  %.0811 = phi i32 [ %35, %._crit_edge ], [ 0, %.preheader.lr.ph ]
  %.not14 = icmp eq i32 %9, 0
  br i1 %.not14, label %._crit_edge, label %.lr.ph

.lr.ph:                                           ; preds = %.preheader, %_ZN9RSCoder165gfInvEj.exit
  %10 = phi i32 [ %31, %_ZN9RSCoder165gfInvEj.exit ], [ %9, %.preheader ]
  %.010 = phi i32 [ %30, %_ZN9RSCoder165gfInvEj.exit ], [ 0, %.preheader ]
  %11 = add i32 %10, %.0811
  %12 = xor i32 %11, %.010
  %13 = icmp eq i32 %12, 0
  br i1 %13, label %_ZN9RSCoder165gfInvEj.exit, label %14

14:                                               ; preds = %.lr.ph
  %15 = load ptr, ptr %0, align 8
  %16 = load ptr, ptr %5, align 8
  %17 = zext i32 %12 to i64
  %18 = getelementptr inbounds i32, ptr %16, i64 %17
  %19 = load i32, ptr %18, align 4
  %20 = sub i32 65535, %19
  %21 = zext i32 %20 to i64
  %22 = getelementptr inbounds i32, ptr %15, i64 %21
  %23 = load i32, ptr %22, align 4
  br label %_ZN9RSCoder165gfInvEj.exit

_ZN9RSCoder165gfInvEj.exit:                       ; preds = %.lr.ph, %14
  %24 = phi i32 [ %23, %14 ], [ 0, %.lr.ph ]
  %25 = load ptr, ptr %6, align 8
  %26 = mul i32 %10, %.0811
  %27 = add i32 %26, %.010
  %28 = zext i32 %27 to i64
  %29 = getelementptr inbounds i32, ptr %25, i64 %28
  store i32 %24, ptr %29, align 4
  %30 = add nuw i32 %.010, 1
  %31 = load i32, ptr %4, align 4
  %32 = icmp ult i32 %30, %31
  br i1 %32, label %.lr.ph, label %._crit_edge.loopexit, !llvm.loop !13

._crit_edge.loopexit:                             ; preds = %_ZN9RSCoder165gfInvEj.exit
  %.pre = load i32, ptr %2, align 8
  br label %._crit_edge

._crit_edge:                                      ; preds = %._crit_edge.loopexit, %.preheader
  %33 = phi i32 [ %.pre, %._crit_edge.loopexit ], [ %8, %.preheader ]
  %34 = phi i32 [ %31, %._crit_edge.loopexit ], [ 0, %.preheader ]
  %35 = add nuw i32 %.0811, 1
  %36 = icmp ult i32 %35, %33
  br i1 %36, label %.preheader, label %._crit_edge12, !llvm.loop !14

._crit_edge12:                                    ; preds = %._crit_edge, %.preheader.lr.ph, %1
  ret void
}